target datalayout = "e-m:e-p270:32:32-p271:32:32-p272:64:64-i64:64-i128:128-f80:128-n8:16:32:64-S128"
target triple = "x86_64-pc-linux-gnu"

%struct.AVComponentDescriptor = type { i32, i32, i32, i32, i32 }
%struct.AVPixFmtDescriptor = type { ptr, i8, i8, i8, i64, [4 x %struct.AVComponentDescriptor], ptr }

@.str = private unnamed_addr constant [6 x i8] c"rgb32\00", align 1
@.str.1 = private unnamed_addr constant [5 x i8] c"bgra\00", align 1
@.str.2 = private unnamed_addr constant [6 x i8] c"bgr32\00", align 1
@.str.3 = private unnamed_addr constant [5 x i8] c"rgba\00", align 1
@.str.4 = private unnamed_addr constant [5 x i8] c"%s%s\00", align 1
@.str.5 = private unnamed_addr constant [3 x i8] c"le\00", align 1

; Function Attrs: nounwind uwtable
define internal i32 @get_pix_fmt_internal(ptr noundef %0) #0 {
  %2 = alloca i32, align 4
  %3 = alloca ptr, align 8
  %4 = alloca i32, align 4
  %5 = alloca i32, align 4
  store ptr %0, ptr %3, align 8, !tbaa !29
  call void @llvm.lifetime.start.p0(i64 4, ptr %4) #8
  store i32 0, ptr %4, align 4, !tbaa !15
  br label %6

6:                                                ; preds = %37, %1
  %7 = load i32, ptr %4, align 4, !tbaa !15
  %8 = icmp slt i32 %7, 258
  br i1 %8, label %9, label %40

9:                                                ; preds = %6
  %10 = load i32, ptr %4, align 4, !tbaa !15
  %11 = sext i32 %10 to i64
  %12 = getelementptr inbounds [258 x %struct.AVPixFmtDescriptor], ptr @av_pix_fmt_descriptors, i64 0, i64 %11
  %13 = getelementptr inbounds nuw %struct.AVPixFmtDescriptor, ptr %12, i32 0, i32 0
  %14 = load ptr, ptr %13, align 16, !tbaa !42
  %15 = icmp ne ptr %14, null
  br i1 %15, label %16, label %36

16:                                               ; preds = %9
  %17 = load i32, ptr %4, align 4, !tbaa !15
  %18 = sext i32 %17 to i64
  %19 = getelementptr inbounds [258 x %struct.AVPixFmtDescriptor], ptr @av_pix_fmt_descriptors, i64 0, i64 %18
  %20 = getelementptr inbounds nuw %struct.AVPixFmtDescriptor, ptr %19, i32 0, i32 0
  %21 = load ptr, ptr %20, align 16, !tbaa !42
  %22 = load ptr, ptr %3, align 8, !tbaa !29
  %23 = call i32 @strcmp(ptr noundef %21, ptr noundef %22) #10
  %24 = icmp ne i32 %23, 0
  br i1 %24, label %25, label %34

25:                                               ; preds = %16
  %26 = load ptr, ptr %3, align 8, !tbaa !29
  %27 = load i32, ptr %4, align 4, !tbaa !15
  %28 = sext i32 %27 to i64
  %29 = getelementptr inbounds [258 x %struct.AVPixFmtDescriptor], ptr @av_pix_fmt_descriptors, i64 0, i64 %28
  %30 = getelementptr inbounds nuw %struct.AVPixFmtDescriptor, ptr %29, i32 0, i32 6
  %31 = load ptr, ptr %30, align 8, !tbaa !43
  %32 = call i32 @av_match_name(ptr noundef %26, ptr noundef %31)
  %33 = icmp ne i32 %32, 0
  br i1 %33, label %34, label %36

34:                                               ; preds = %25, %16
  %35 = load i32, ptr %4, align 4, !tbaa !15
  store i32 %35, ptr %2, align 4
  store i32 1, ptr %5, align 4
  br label %41

36:                                               ; preds = %25, %9
  br label %37

37:                                               ; preds = %36
  %38 = load i32, ptr %4, align 4, !tbaa !15
  %39 = add nsw i32 %38, 1
  store i32 %39, ptr %4, align 4, !tbaa !15
  br label %6, !llvm.loop !44

40:                                               ; preds = %6
  store i32 -1, ptr %2, align 4
  store i32 1, ptr %5, align 4
  br label %41

41:                                               ; preds = %40, %34
  call void @llvm.lifetime.end.p0(i64 4, ptr %4) #8
  %42 = load i32, ptr %2, align 4
  ret i32 %42
}

; Function Attrs: nounwind uwtable
define i32 @av_get_pix_fmt(ptr noundef %0) #0 {
  %2 = alloca ptr, align 8
  %3 = alloca i32, align 4
  %4 = alloca [32 x i8], align 16
  store ptr %0, ptr %2, align 8, !tbaa !29
  call void @llvm.lifetime.start.p0(i64 4, ptr %3) #8
  %5 = load ptr, ptr %2, align 8, !tbaa !29
  %6 = call i32 @strcmp(ptr noundef %5, ptr noundef @.str) #10
  %7 = icmp ne i32 %6, 0
  br i1 %7, label %9, label %8

8:                                                ; preds = %1
  store ptr @.str.1, ptr %2, align 8, !tbaa !29
  br label %15

9:                                                ; preds = %1
  %10 = load ptr, ptr %2, align 8, !tbaa !29
  %11 = call i32 @strcmp(ptr noundef %10, ptr noundef @.str.2) #10
  %12 = icmp ne i32 %11, 0
  br i1 %12, label %14, label %13

13:                                               ; preds = %9
  store ptr @.str.3, ptr %2, align 8, !tbaa !29
  br label %14

14:                                               ; preds = %13, %9
  br label %15

15:                                               ; preds = %14, %8
  %16 = load ptr, ptr %2, align 8, !tbaa !29
  %17 = call i32 @get_pix_fmt_internal(ptr noundef %16)
  store i32 %17, ptr %3, align 4, !tbaa !15
  %18 = load i32, ptr %3, align 4, !tbaa !15
  %19 = icmp eq i32 %18, -1
  br i1 %19, label %20, label %26

20:                                               ; preds = %15
  call void @llvm.lifetime.start.p0(i64 32, ptr %4) #8
  %21 = getelementptr inbounds [32 x i8], ptr %4, i64 0, i64 0
  %22 = load ptr, ptr %2, align 8, !tbaa !29
  %23 = call i32 (ptr, i64, ptr, ...) @snprintf(ptr noundef %21, i64 noundef 32, ptr noundef @.str.4, ptr noundef %22, ptr noundef @.str.5) #8
  %24 = getelementptr inbounds [32 x i8], ptr %4, i64 0, i64 0
  %25 = call i32 @get_pix_fmt_internal(ptr noundef %24)
  store i32 %25, ptr %3, align 4, !tbaa !15
  call void @llvm.lifetime.end.p0(i64 32, ptr %4) #8
  br label %26

26:                                               ; preds = %20, %15
  %27 = load i32, ptr %3, align 4, !tbaa !15
  call void @llvm.lifetime.end.p0(i64 4, ptr %3) #8
  ret i32 %27
}