; Function Attrs: nounwind uwtable
define i32 @av_get_pix_fmt(ptr noundef %0) local_unnamed_addr #4 {
  %2 = alloca [32 x i8], align 16
  %3 = tail call i32 @strcmp(ptr noundef nonnull dereferenceable(1) %0, ptr noundef nonnull dereferenceable(6) @.str) #14
  %.not = icmp eq i32 %3, 0
  br i1 %.not, label %6, label %4

4:                                                ; preds = %1
  %5 = tail call i32 @strcmp(ptr noundef nonnull dereferenceable(1) %0, ptr noundef nonnull dereferenceable(6) @.str.2) #14
  %.not7 = icmp eq i32 %5, 0
  %spec.store.select = select i1 %.not7, ptr @.str.3, ptr %0
  br label %6

6:                                                ; preds = %1, %4
  %.05 = phi ptr [ %spec.store.select, %4 ], [ @.str.1, %1 ]
  br label %7

7:                                                ; preds = %16, %6
  %indvars.iv.i = phi i64 [ 0, %6 ], [ %indvars.iv.next.i, %16 ]
  %8 = getelementptr inbounds nuw [258 x %struct.AVPixFmtDescriptor], ptr @av_pix_fmt_descriptors, i64 0, i64 %indvars.iv.i
  %9 = load ptr, ptr %8, align 16, !tbaa !25
  %.not.i = icmp eq ptr %9, null
  br i1 %.not.i, label %16, label %10

10:                                               ; preds = %7
  %11 = tail call i32 @strcmp(ptr noundef nonnull dereferenceable(1) %9, ptr noundef nonnull dereferenceable(1) %.05) #14
  %.not10.i = icmp eq i32 %11, 0
  br i1 %.not10.i, label %get_pix_fmt_internal.exit, label %12

12:                                               ; preds = %10
  %13 = getelementptr inbounds nuw i8, ptr %8, i64 104
  %14 = load ptr, ptr %13, align 8, !tbaa !26
  %15 = tail call i32 @av_match_name(ptr noundef nonnull %.05, ptr noundef %14) #15
  %.not11.i = icmp eq i32 %15, 0
  br i1 %.not11.i, label %16, label %get_pix_fmt_internal.exit

16:                                               ; preds = %12, %7
  %indvars.iv.next.i = add nuw nsw i64 %indvars.iv.i, 1
  %exitcond.not.i = icmp eq i64 %indvars.iv.next.i, 258
  br i1 %exitcond.not.i, label %get_pix_fmt_internal.exit.thread, label %7, !llvm.loop !27

get_pix_fmt_internal.exit:                        ; preds = %12, %10
  %.08.i = trunc i64 %indvars.iv.i to i32
  %17 = icmp eq i32 %.08.i, -1
  br i1 %17, label %get_pix_fmt_internal.exit.thread, label %31

get_pix_fmt_internal.exit.thread:                 ; preds = %16, %get_pix_fmt_internal.exit
  call void @llvm.lifetime.start.p0(i64 32, ptr nonnull %2) #15
  %18 = call i32 (ptr, i64, ptr, ...) @snprintf(ptr noundef nonnull dereferenceable(1) %2, i64 noundef 32, ptr noundef nonnull @.str.4, ptr noundef %.05, ptr noundef nonnull @.str.5) #15
  br label %19

19:                                               ; preds = %28, %get_pix_fmt_internal.exit.thread
  %indvars.iv.i8 = phi i64 [ 0, %get_pix_fmt_internal.exit.thread ], [ %indvars.iv.next.i14, %28 ]
  %20 = getelementptr inbounds nuw [258 x %struct.AVPixFmtDescriptor], ptr @av_pix_fmt_descriptors, i64 0, i64 %indvars.iv.i8
  %21 = load ptr, ptr %20, align 16, !tbaa !25
  %.not.i9 = icmp eq ptr %21, null
  br i1 %.not.i9, label %28, label %22

22:                                               ; preds = %19
  %23 = call i32 @strcmp(ptr noundef nonnull dereferenceable(1) %21, ptr noundef nonnull dereferenceable(1) %2) #14
  %.not10.i10 = icmp eq i32 %23, 0
  br i1 %.not10.i10, label %.split.loop.exit14.i16, label %24

24:                                               ; preds = %22
  %25 = getelementptr inbounds nuw i8, ptr %20, i64 104
  %26 = load ptr, ptr %25, align 8, !tbaa !26
  %27 = call i32 @av_match_name(ptr noundef nonnull %2, ptr noundef %26) #15
  %.not11.i11 = icmp eq i32 %27, 0
  br i1 %.not11.i11, label %28, label %.split.loop.exit16.i12

28:                                               ; preds = %24, %19
  %indvars.iv.next.i14 = add nuw nsw i64 %indvars.iv.i8, 1
  %exitcond.not.i15 = icmp eq i64 %indvars.iv.next.i14, 258
  br i1 %exitcond.not.i15, label %get_pix_fmt_internal.exit17, label %19, !llvm.loop !27

.split.loop.exit14.i16:                           ; preds = %22
  %29 = trunc nuw nsw i64 %indvars.iv.i8 to i32
  br label %get_pix_fmt_internal.exit17

.split.loop.exit16.i12:                           ; preds = %24
  %30 = trunc nuw nsw i64 %indvars.iv.i8 to i32
  br label %get_pix_fmt_internal.exit17

get_pix_fmt_internal.exit17:                      ; preds = %28, %.split.loop.exit14.i16, %.split.loop.exit16.i12
  %.08.i13 = phi i32 [ %29, %.split.loop.exit14.i16 ], [ %30, %.split.loop.exit16.i12 ], [ -1, %28 ]
  call void @llvm.lifetime.end.p0(i64 32, ptr nonnull %2) #15
  br label %31

31:                                               ; preds = %get_pix_fmt_internal.exit17, %get_pix_fmt_internal.exit
  %.0 = phi i32 [ %.08.i13, %get_pix_fmt_internal.exit17 ], [ %.08.i, %get_pix_fmt_internal.exit ]
  ret i32 %.0
}